; ModuleID = 'bench/cpython/original/docstring.ll'
source_filename = "bench/cpython/original/docstring.ll"
target datalayout = "e-m:e-p270:32:32-p271:32:32-p272:64:64-i64:64-i128:128-f80:128-n8:16:32:64-S128"
target triple = "x86_64-pc-linux-gnu"

%struct._object = type { %union.anon, ptr }
%union.anon = type { i64 }
%struct.PyVarObject = type { %struct._object, i64 }

@.str = private unnamed_addr constant [4 x i8] c"ONE\00", align 1
@.str.1 = private unnamed_addr constant [16 x i8] c"docstring_empty\00", align 1
@docstring_empty = internal constant [1 x i8] zeroinitializer, align 1
@.str.2 = private unnamed_addr constant [23 x i8] c"docstring_no_signature\00", align 1
@docstring_no_signature = internal constant [33 x i8] c"This docstring has no signature.\00", align 16
@.str.3 = private unnamed_addr constant [30 x i8] c"docstring_no_signature_noargs\00", align 1
@.str.4 = private unnamed_addr constant [25 x i8] c"docstring_no_signature_o\00", align 1
@.str.5 = private unnamed_addr constant [33 x i8] c"docstring_with_invalid_signature\00", align 1
@docstring_with_invalid_signature = internal constant [92 x i8] c"docstring_with_invalid_signature($module, /, boo)\0A\0AThis docstring has an invalid signature.\00", align 16
@.str.6 = private unnamed_addr constant [34 x i8] c"docstring_with_invalid_signature2\00", align 1
@docstring_with_invalid_signature2 = internal constant [102 x i8] c"docstring_with_invalid_signature2($module, /, boo)\0A\0A--\0A\0AThis docstring also has an invalid signature.\00", align 16
@.str.7 = private unnamed_addr constant [25 x i8] c"docstring_with_signature\00", align 1
@docstring_with_signature = internal constant [84 x i8] c"docstring_with_signature($module, /, sig)\0A--\0A\0AThis docstring has a valid signature.\00", align 16
@.str.8 = private unnamed_addr constant [44 x i8] c"docstring_with_signature_and_extra_newlines\00", align 1
@docstring_with_signature_and_extra_newlines = internal constant [134 x i8] c"docstring_with_signature_and_extra_newlines($module, /, parameter)\0A--\0A\0A\0AThis docstring has a valid signature and some extra newlines.\00", align 16
@.str.9 = private unnamed_addr constant [36 x i8] c"docstring_with_signature_but_no_doc\00", align 1
@docstring_with_signature_but_no_doc = internal constant [58 x i8] c"docstring_with_signature_but_no_doc($module, /, sig)\0A--\0A\0A\00", align 16
@.str.10 = private unnamed_addr constant [39 x i8] c"docstring_with_signature_with_defaults\00", align 1
@docstring_with_signature_with_defaults = internal constant [308 x i8] c"docstring_with_signature_with_defaults(module, s='avocado',\0A        b=b'bytes', d=3.14, i=35, n=None, t=True, f=False,\0A        local=the_number_three, sys=sys.maxsize,\0A        exp=sys.maxsize - 1)\0A--\0A\0A\0A\0AThis docstring has a valid signature with parameters,\0Aand the parameters take defaults of varying types.\00", align 16
@.str.11 = private unnamed_addr constant [13 x i8] c"no_docstring\00", align 1
@.str.12 = private unnamed_addr constant [20 x i8] c"test_with_docstring\00", align 1
@.str.13 = private unnamed_addr constant [35 x i8] c"This is a pretty normal docstring.\00", align 1
@.str.14 = private unnamed_addr constant [36 x i8] c"func_with_unrepresentable_signature\00", align 1
@.str.15 = private unnamed_addr constant [123 x i8] c"func_with_unrepresentable_signature($module, /, a, b=<x>)\0A--\0A\0AThis docstring has a signature with unrepresentable default.\00", align 1
@test_methods = internal global [14 x { ptr, ptr, i32, [4 x i8], ptr }] [{ ptr, ptr, i32, [4 x i8], ptr } { ptr @.str.1, ptr @test_with_docstring, i32 1, [4 x i8] zeroinitializer, ptr @docstring_empty }, { ptr, ptr, i32, [4 x i8], ptr } { ptr @.str.2, ptr @test_with_docstring, i32 1, [4 x i8] zeroinitializer, ptr @docstring_no_signature }, { ptr, ptr, i32, [4 x i8], ptr } { ptr @.str.3, ptr @test_with_docstring, i32 4, [4 x i8] zeroinitializer, ptr @docstring_no_signature }, { ptr, ptr, i32, [4 x i8], ptr } { ptr @.str.4, ptr @test_with_docstring, i32 8, [4 x i8] zeroinitializer, ptr @docstring_no_signature }, { ptr, ptr, i32, [4 x i8], ptr } { ptr @.str.5, ptr @test_with_docstring, i32 1, [4 x i8] zeroinitializer, ptr @docstring_with_invalid_signature }, { ptr, ptr, i32, [4 x i8], ptr } { ptr @.str.6, ptr @test_with_docstring, i32 1, [4 x i8] zeroinitializer, ptr @docstring_with_invalid_signature2 }, { ptr, ptr, i32, [4 x i8], ptr } { ptr @.str.7, ptr @test_with_docstring, i32 1, [4 x i8] zeroinitializer, ptr @docstring_with_signature }, { ptr, ptr, i32, [4 x i8], ptr } { ptr @.str.8, ptr @test_with_docstring, i32 1, [4 x i8] zeroinitializer, ptr @docstring_with_signature_and_extra_newlines }, { ptr, ptr, i32, [4 x i8], ptr } { ptr @.str.9, ptr @test_with_docstring, i32 1, [4 x i8] zeroinitializer, ptr @docstring_with_signature_but_no_doc }, { ptr, ptr, i32, [4 x i8], ptr } { ptr @.str.10, ptr @test_with_docstring, i32 1, [4 x i8] zeroinitializer, ptr @docstring_with_signature_with_defaults }, { ptr, ptr, i32, [4 x i8], ptr } { ptr @.str.11, ptr @test_with_docstring, i32 1, [4 x i8] zeroinitializer, ptr null }, { ptr, ptr, i32, [4 x i8], ptr } { ptr @.str.12, ptr @test_with_docstring, i32 1, [4 x i8] zeroinitializer, ptr @.str.13 }, { ptr, ptr, i32, [4 x i8], ptr } { ptr @.str.14, ptr @test_with_docstring, i32 1, [4 x i8] zeroinitializer, ptr @.str.15 }, { ptr, ptr, i32, [4 x i8], ptr } zeroinitializer], align 16
@_Py_NoneStruct = external global %struct._object, align 8
@.str.17 = private unnamed_addr constant [35 x i8] c"_testcapi.DocStringNoSignatureTest\00", align 1
@DocStringNoSignatureTest = internal global { %struct.PyVarObject, ptr, i64, i64, ptr, i64, ptr, ptr, ptr, ptr, ptr, ptr, ptr, ptr, ptr, ptr, ptr, ptr, ptr, i64, ptr, ptr, ptr, ptr, i64, ptr, ptr, ptr, ptr, ptr, ptr, ptr, ptr, ptr, i64, ptr, ptr, ptr, ptr, ptr, ptr, ptr, ptr, ptr, ptr, ptr, i32, [4 x i8], ptr, ptr, i8, i8, i16, [4 x i8] } { %struct.PyVarObject { %struct._object { %union.anon { i64 552977039360 }, ptr null }, i64 0 }, ptr @.str.17, i64 16, i64 0, ptr null, i64 0, ptr null, ptr null, ptr null, ptr null, ptr null, ptr null, ptr null, ptr null, ptr null, ptr null, ptr null, ptr null, ptr null, i64 0, ptr null, ptr null, ptr null, ptr null, i64 0, ptr null, ptr null, ptr @DocStringNoSignatureTest_methods, ptr null, ptr null, ptr null, ptr null, ptr null, ptr null, i64 0, ptr null, ptr null, ptr @PyType_GenericNew, ptr null, ptr null, ptr null, ptr null, ptr null, ptr null, ptr null, ptr null, i32 0, [4 x i8] zeroinitializer, ptr null, ptr null, i8 0, i8 0, i16 0, [4 x i8] zeroinitializer }, align 8
@.str.19 = private unnamed_addr constant [12 x i8] c"meth_noargs\00", align 1
@.str.20 = private unnamed_addr constant [7 x i8] c"meth_o\00", align 1
@.str.21 = private unnamed_addr constant [18 x i8] c"meth_noargs_class\00", align 1
@.str.22 = private unnamed_addr constant [13 x i8] c"meth_o_class\00", align 1
@.str.23 = private unnamed_addr constant [19 x i8] c"meth_noargs_static\00", align 1
@.str.24 = private unnamed_addr constant [14 x i8] c"meth_o_static\00", align 1
@.str.25 = private unnamed_addr constant [20 x i8] c"meth_noargs_coexist\00", align 1
@.str.26 = private unnamed_addr constant [15 x i8] c"meth_o_coexist\00", align 1
@DocStringNoSignatureTest_methods = internal global [9 x { ptr, ptr, i32, [4 x i8], ptr }] [{ ptr, ptr, i32, [4 x i8], ptr } { ptr @.str.19, ptr @test_with_docstring, i32 4, [4 x i8] zeroinitializer, ptr @docstring_no_signature }, { ptr, ptr, i32, [4 x i8], ptr } { ptr @.str.20, ptr @test_with_docstring, i32 8, [4 x i8] zeroinitializer, ptr @docstring_no_signature }, { ptr, ptr, i32, [4 x i8], ptr } { ptr @.str.21, ptr @test_with_docstring, i32 20, [4 x i8] zeroinitializer, ptr @docstring_no_signature }, { ptr, ptr, i32, [4 x i8], ptr } { ptr @.str.22, ptr @test_with_docstring, i32 24, [4 x i8] zeroinitializer, ptr @docstring_no_signature }, { ptr, ptr, i32, [4 x i8], ptr } { ptr @.str.23, ptr @test_with_docstring, i32 36, [4 x i8] zeroinitializer, ptr @docstring_no_signature }, { ptr, ptr, i32, [4 x i8], ptr } { ptr @.str.24, ptr @test_with_docstring, i32 40, [4 x i8] zeroinitializer, ptr @docstring_no_signature }, { ptr, ptr, i32, [4 x i8], ptr } { ptr @.str.25, ptr @test_with_docstring, i32 68, [4 x i8] zeroinitializer, ptr @docstring_no_signature }, { ptr, ptr, i32, [4 x i8], ptr } { ptr @.str.26, ptr @test_with_docstring, i32 72, [4 x i8] zeroinitializer, ptr @docstring_no_signature }, { ptr, ptr, i32, [4 x i8], ptr } zeroinitializer], align 16
@.str.28 = private unnamed_addr constant [48 x i8] c"_testcapi.DocStringUnrepresentableSignatureTest\00", align 1
@DocStringUnrepresentableSignatureTest = internal global { %struct.PyVarObject, ptr, i64, i64, ptr, i64, ptr, ptr, ptr, ptr, ptr, ptr, ptr, ptr, ptr, ptr, ptr, ptr, ptr, i64, ptr, ptr, ptr, ptr, i64, ptr, ptr, ptr, ptr, ptr, ptr, ptr, ptr, ptr, i64, ptr, ptr, ptr, ptr, ptr, ptr, ptr, ptr, ptr, ptr, ptr, i32, [4 x i8], ptr, ptr, i8, i8, i16, [4 x i8] } { %struct.PyVarObject { %struct._object { %union.anon { i64 552977039360 }, ptr null }, i64 0 }, ptr @.str.28, i64 16, i64 0, ptr null, i64 0, ptr null, ptr null, ptr null, ptr null, ptr null, ptr null, ptr null, ptr null, ptr null, ptr null, ptr null, ptr null, ptr null, i64 0, ptr null, ptr null, ptr null, ptr null, i64 0, ptr null, ptr null, ptr @DocStringUnrepresentableSignatureTest_methods, ptr null, ptr null, ptr null, ptr null, ptr null, ptr null, i64 0, ptr null, ptr null, ptr @PyType_GenericNew, ptr null, ptr null, ptr null, ptr null, ptr null, ptr null, ptr null, ptr null, i32 0, [4 x i8] zeroinitializer, ptr null, ptr null, i8 0, i8 0, i16 0, [4 x i8] zeroinitializer }, align 8
@.str.30 = private unnamed_addr constant [5 x i8] c"meth\00", align 1
@.str.31 = private unnamed_addr constant [90 x i8] c"meth($self, /, a, b=<x>)\0A--\0A\0AThis docstring has a signature with unrepresentable default.\00", align 1
@.str.32 = private unnamed_addr constant [10 x i8] c"classmeth\00", align 1
@.str.33 = private unnamed_addr constant [95 x i8] c"classmeth($type, /, a, b=<x>)\0A--\0A\0AThis docstring has a signature with unrepresentable default.\00", align 1
@.str.34 = private unnamed_addr constant [11 x i8] c"staticmeth\00", align 1
@.str.35 = private unnamed_addr constant [86 x i8] c"staticmeth(a, b=<x>)\0A--\0A\0AThis docstring has a signature with unrepresentable default.\00", align 1
@.str.36 = private unnamed_addr constant [13 x i8] c"with_default\00", align 1
@.str.37 = private unnamed_addr constant [108 x i8] c"with_default($self, /, x=ONE)\0A--\0A\0AThis instance method has a default parameter value from the module scope.\00", align 1
@DocStringUnrepresentableSignatureTest_methods = internal global [5 x { ptr, ptr, i32, [4 x i8], ptr }] [{ ptr, ptr, i32, [4 x i8], ptr } { ptr @.str.30, ptr @test_with_docstring, i32 1, [4 x i8] zeroinitializer, ptr @.str.31 }, { ptr, ptr, i32, [4 x i8], ptr } { ptr @.str.32, ptr @test_with_docstring, i32 17, [4 x i8] zeroinitializer, ptr @.str.33 }, { ptr, ptr, i32, [4 x i8], ptr } { ptr @.str.34, ptr @test_with_docstring, i32 33, [4 x i8] zeroinitializer, ptr @.str.35 }, { ptr, ptr, i32, [4 x i8], ptr } { ptr @.str.36, ptr @test_with_docstring, i32 1, [4 x i8] zeroinitializer, ptr @.str.37 }, { ptr, ptr, i32, [4 x i8], ptr } zeroinitializer], align 16

; Function Attrs: nounwind uwtable
define hidden range(i32 -1, 1) i32 @_PyTestCapi_Init_Docstring(ptr noundef %0) local_unnamed_addr #0 {
  %2 = tail call i32 @PyModule_AddFunctions(ptr noundef %0, ptr noundef nonnull @test_methods) #3
  %3 = icmp slt i32 %2, 0
  br i1 %3, label %13, label %4

4:                                                ; preds = %1
  %5 = tail call i32 @PyModule_AddType(ptr noundef %0, ptr noundef nonnull @DocStringNoSignatureTest) #3
  %6 = icmp slt i32 %5, 0
  br i1 %6, label %13, label %7

7:                                                ; preds = %4
  %8 = tail call i32 @PyModule_AddType(ptr noundef %0, ptr noundef nonnull @DocStringUnrepresentableSignatureTest) #3
  %9 = icmp slt i32 %8, 0
  br i1 %9, label %13, label %10

10:                                               ; preds = %7
  %11 = tail call ptr @PyLong_FromLong(i64 noundef 1) #3
  %12 = tail call i32 @PyModule_AddObject(ptr noundef %0, ptr noundef nonnull @.str, ptr noundef %11) #3
  %.lobit = ashr i32 %12, 31
  br label %13

13:                                               ; preds = %10, %7, %4, %1
  %.0 = phi i32 [ -1, %1 ], [ -1, %4 ], [ -1, %7 ], [ %.lobit, %10 ]
  ret i32 %.0
}

declare i32 @PyModule_AddFunctions(ptr noundef, ptr noundef) local_unnamed_addr #1

declare i32 @PyModule_AddType(ptr noundef, ptr noundef) local_unnamed_addr #1

declare i32 @PyModule_AddObject(ptr noundef, ptr noundef, ptr noundef) local_unnamed_addr #1

declare ptr @PyLong_FromLong(i64 noundef) local_unnamed_addr #1

; Function Attrs: mustprogress nofree norecurse nosync nounwind willreturn memory(none) uwtable
define internal noundef nonnull ptr @test_with_docstring(ptr readnone captures(none) %0, ptr readnone captures(none) %1) #2 {
  ret ptr @_Py_NoneStruct
}

declare ptr @PyType_GenericNew(ptr noundef, ptr noundef, ptr noundef) #1


!llvm.module.flags = !{!0, !1, !2}

!0 = !{i32 1, !"wchar_size", i32 4}
!1 = !{i32 8, !"PIC Level", i32 2}
!2 = !{i32 7, !"uwtable", i32 2}
